target datalayout = "e-m:e-p270:32:32-p271:32:32-p272:64:64-i64:64-i128:128-f80:128-n8:16:32:64-S128"
target triple = "x86_64-unknown-linux-gnu"

%"class.sat::literal" = type { i32 }
%"class.sat::lookahead" = type { ptr, i32, %class.reslimit, %"struct.sat::lookahead::config", double, double, double, %class.svector.1, %class.svector.1, %class.svector.3, %class.vector.5, %class.svector.3, %class.svector.3, %class.vector.6, %class.svector.3, %class.small_object_allocator, %class.vector.7, %class.ptr_vector.8, %class.svector.3, i32, %class.svector.3, i32, %class.svector.3, i8, %class.svector.3, %class.vector.10, ptr, %class.svector.11, i32, i32, %class.svector.3, i32, i32, %class.vector.13, %class.svector.14, double, %class.svector.1, i32, i64, %class.svector.16, i32, %class.indexed_uint_set, i32, i32, %"struct.sat::lookahead::stats", %class.svector.18, %"struct.sat::lookahead::cube_state", i32, %class.svector.22, %class.tracked_uint_set, %"class.sat::literal", i32, i32, %"class.sat::literal", %class.vector.26, %"class.sat::literal", %class.svector.27 }
%class.reslimit = type { %"struct.std::atomic", i8, i64, i64, %class.svector, %class.ptr_vector }
%"struct.std::atomic" = type { %"struct.std::__atomic_base" }
%"struct.std::__atomic_base" = type { i32 }
%class.svector = type { %class.vector }
%class.vector = type { ptr }
%class.ptr_vector = type { %class.vector.0 }
%class.vector.0 = type { ptr }
%"struct.sat::lookahead::config" = type { double, double, double, i32, i32, i8, i32, double, i32, i32, i32, i32, i32, double, double, double, double, double }
%class.vector.5 = type { ptr }
%class.vector.6 = type { ptr }
%class.small_object_allocator = type { [32 x ptr], [32 x ptr], i64 }
%class.vector.7 = type { ptr }
%class.ptr_vector.8 = type { %class.vector.9 }
%class.vector.9 = type { ptr }
%class.vector.10 = type { ptr }
%class.svector.11 = type { %class.vector.12 }
%class.vector.12 = type { ptr }
%class.svector.3 = type { %class.vector.4 }
%class.vector.4 = type { ptr }
%class.vector.13 = type { ptr }
%class.svector.14 = type { %class.vector.15 }
%class.vector.15 = type { ptr }
%class.svector.1 = type { %class.vector.2 }
%class.vector.2 = type { ptr }
%class.svector.16 = type { %class.vector.17 }
%class.vector.17 = type { ptr }
%class.indexed_uint_set = type { i32, %class.svector.3, %class.svector.3 }
%"struct.sat::lookahead::stats" = type { i32, i32, i32, i32, i32, i32, i32, i32 }
%class.svector.18 = type { %class.vector.19 }
%class.vector.19 = type { ptr }
%"struct.sat::lookahead::cube_state" = type <{ i8, [7 x i8], %class.svector.20, %class.svector.1, double, double, i32, i32, i32, [4 x i8] }>
%class.svector.20 = type { %class.vector.21 }
%class.vector.21 = type { ptr }
%class.svector.22 = type { %class.vector.23 }
%class.vector.23 = type { ptr }
%class.tracked_uint_set = type { %class.svector.24, %class.svector.3 }
%class.svector.24 = type { %class.vector.25 }
%class.vector.25 = type { ptr }
%class.vector.26 = type { ptr }
%class.svector.27 = type { %class.vector.28 }
%class.vector.28 = type { ptr }
%"class.sat::solver" = type { %"class.sat::solver_core", i8, [7 x i8], %"struct.sat::config", %"struct.sat::stats", %class.scoped_ptr, %class.scoped_ptr.29, ptr, %"class.sat::drat", [2 x %"class.sat::clause_allocator"], i8, %class.random_gen, %"class.sat::cleaner", %class.svector.18, %"class.sat::model_converter", i8, %"class.sat::simplifier", %"class.sat::scc", %"class.sat::asymm_branch", %"class.sat::probing", i8, [7 x i8], %"class.sat::mus", %"class.sat::binspr", i8, i8, [6 x i8], %"class.sat::justification", %"class.sat::literal", %class.ptr_vector.46, %class.ptr_vector.46, i32, %class.svector.3, %class.svector.3, %class.svector.3, %class.svector.3, %class.vector.13, %class.svector.18, %class.svector.61, %class.svector.20, %class.svector.20, %class.svector.20, %class.svector.20, %class.svector.20, %class.svector.3, %class.svector.3, i32, %class.svector.1, %class.svector.3, i32, %class.svector, %class.svector, %class.svector, %class.svector, %class.svector, i32, double, %class.svector.20, %class.svector.20, %class.svector.20, %class.svector.24, i32, i32, i32, i32, i32, i32, %"struct.sat::backoff", i32, i32, %"struct.sat::backoff", %"struct.sat::backoff", %class.var_queue, i32, i32, i32, %class.ema, %class.ema, %class.ema, %class.ema, %class.ema, %class.svector.1, %class.svector.50, %"class.std::__cxx11::basic_string", i8, %class.visit_helper, %class.svector.63, %class.scoped_limit_trail, %class.stopwatch, %class.params_ref, %"struct.sat::no_drat_params", %class.scoped_ptr.59, %class.svector.1, %"class.sat::literal_set", %"class.sat::literal_set", %class.svector.1, i32, i32, i32, i32, i8, ptr, ptr, %class.statistics, i32, i32, i32, i32, i8, i32, i32, i32, i32, i32, i32, i32, double, i32, double, i8, i8, %class.svector.1, i8, %class.svector, i32, i32, i32, %class.svector.1, %class.svector.1, %class.svector.24, %class.svector.3, %class.approx_set_tpl, %class.svector.1, %class.svector.1, %class.vector.40, %class.svector.1, %class.svector.57, %class.u_map, %class.svector.1 }
%"class.sat::solver_core" = type { ptr, ptr }
%"struct.sat::config" = type <{ i64, i32, i32, i32, i8, [3 x i8], i32, i32, double, i32, i8, [3 x i8], i32, i8, [3 x i8], i32, [4 x i8], double, double, i32, i32, double, double, i32, [4 x i8], %class.symbol, double, i32, i32, i8, [3 x i8], i32, i32, i8, [3 x i8], i32, i8, [3 x i8], i32, i8, [3 x i8], i32, i8, i8, i8, i8, i32, i8, i8, i8, i8, i8, i8, i8, i8, i32, i8, i8, i8, i8, i32, double, i32, [4 x i8], double, double, double, double, i32, i8, i8, [2 x i8], double, i8, i8, [2 x i8], i32, double, i32, i32, i32, i32, i32, i32, i32, i32, i8, i8, i8, i8, i32, i32, i8, i8, i8, i8, i8, i8, i8, [5 x i8], %class.symbol, i8, i8, i8, i8, i8, i8, [2 x i8], i32, i32, i32, i8, [3 x i8], double, double, double, double, double, i8, [7 x i8] }>
%class.symbol = type { ptr }
%"struct.sat::stats" = type { i32, i32, i32, i32, i32, i32, i32, i32, i32, i32, i32, i32, i32, i32, i32, i32, i32, i32, i32, i32, i32 }
%class.scoped_ptr = type { ptr }
%class.scoped_ptr.29 = type { ptr }
%"class.sat::drat" = type { ptr, %class.svector.30, ptr, %"class.sat::clause_allocator", ptr, ptr, %class.svector.36, %class.svector.38, %class.vector.40, %class.svector.18, i8, i8, i8, i8, i8, %"struct.sat::drat::stats" }
%class.svector.30 = type { %class.vector.31 }
%class.vector.31 = type { ptr }
%"class.sat::clause_allocator" = type { %class.sat_allocator, %class.id_gen }
%class.sat_allocator = type { ptr, i64, %class.ptr_vector.32, ptr, [65 x %class.ptr_vector.34] }
%class.ptr_vector.32 = type { %class.vector.33 }
%class.vector.33 = type { ptr }
%class.ptr_vector.34 = type { %class.vector.35 }
%class.vector.35 = type { ptr }
%class.id_gen = type { i32, %class.svector.3 }
%class.svector.36 = type { %class.vector.37 }
%class.vector.37 = type { ptr }
%class.svector.38 = type { %class.vector.39 }
%class.vector.39 = type { ptr }
%"struct.sat::drat::stats" = type { i32, i32, i32, i32 }
%class.random_gen = type { i32 }
%"class.sat::cleaner" = type { ptr, i32, i32, i32, i32 }
%"class.sat::model_converter" = type { %class.vector.41, i32, %class.svector.20, ptr, %class.svector.42 }
%class.vector.41 = type { ptr }
%class.svector.42 = type { %class.vector.43 }
%class.vector.43 = type { ptr }
%"class.sat::simplifier" = type { ptr, i32, %"class.sat::use_list", %"class.sat::ext_use_list", %"class.sat::clause_set", %class.svector.48, i32, %class.tracked_uint_set, i8, %"class.sat::tmp_clause", %class.svector.24, i32, i32, i8, i8, i8, i8, i32, i8, i8, i32, i8, i32, i8, i8, i32, i32, i32, i32, i32, i32, i32, i32, i32, i32, i8, i32, i8, i8, i32, i32, i32, i32, i32, i32, i32, i32, i32, i32, i32, i8, i32, %class.ptr_vector.46, %class.svector.1, %class.svector.50, %class.svector.50, %class.svector.1 }
%"class.sat::use_list" = type { %class.vector.44 }
%class.vector.44 = type { ptr }
%"class.sat::ext_use_list" = type { %class.vector.45 }
%class.vector.45 = type { ptr }
%"class.sat::clause_set" = type { %class.svector.3, %class.ptr_vector.46 }
%class.svector.48 = type { %class.vector.49 }
%class.vector.49 = type { ptr }
%"class.sat::tmp_clause" = type { ptr }
%"class.sat::scc" = type { ptr, i8, i8, i32, i32, %"class.sat::big" }
%"class.sat::big" = type { ptr, i32, %class.vector.5, %class.svector.20, %class.svector.52, %class.svector.52, %class.svector.1, %class.svector.1, i8, i8, %class.vector.5 }
%class.svector.52 = type { %class.vector.53 }
%class.vector.53 = type { ptr }
%"class.sat::asymm_branch" = type { ptr, %class.params_ref, i64, %class.random_gen, i32, i32, i8, i32, i32, i8, i8, i64, i32, i32, i32, %class.svector.1, %class.svector.1, %class.svector.54, %class.svector.54, %class.svector.1, %class.svector.1 }
%class.svector.54 = type { %class.vector.55 }
%class.vector.55 = type { ptr }
%"class.sat::probing" = type { ptr, i32, %"class.sat::literal_set", %class.svector.1, i32, i8, i32, i8, i8, i64, i32, %class.vector.56, %class.svector.57, %"class.sat::big" }
%class.vector.56 = type { ptr }
%"class.sat::mus" = type <{ ptr, %class.svector.1, %class.svector.1, i8, [7 x i8], %class.svector.18, i32, [4 x i8] }>
%"class.sat::binspr" = type <{ ptr, %class.scoped_ptr.59, i32, i32, %class.vector.60, i32, i32, %class.svector.20, %class.svector.20, %class.svector.1, %class.svector.1, i32, i32, i32, i32, i32, [4 x i32], [5 x i32], [5 x i32], [4 x i8] }>
%class.vector.60 = type { ptr }
%"class.sat::justification" = type <{ i32, [4 x i8], i64, i32, [4 x i8] }>
%class.ptr_vector.46 = type { %class.vector.47 }
%class.vector.47 = type { ptr }
%class.svector.61 = type { %class.vector.62 }
%class.vector.62 = type { ptr }
%"struct.sat::backoff" = type { i32, i32, i32, i32, i32 }
%class.var_queue = type { %class.heap }
%class.heap = type { %"struct.var_queue<svector<unsigned int>>::lt", %class.svector.52, %class.svector.52 }
%"struct.var_queue<svector<unsigned int>>::lt" = type { ptr }
%class.ema = type { double, double, double, i32, i32 }
%class.svector.50 = type { %class.vector.51 }
%class.vector.51 = type { ptr }
%"class.std::__cxx11::basic_string" = type { %"struct.std::__cxx11::basic_string<char>::_Alloc_hider", i64, %union.anon }
%"struct.std::__cxx11::basic_string<char>::_Alloc_hider" = type { ptr }
%union.anon = type { i64, [8 x i8] }
%class.visit_helper = type { %class.svector.3, i32, i32 }
%class.svector.63 = type { %class.vector.64 }
%class.vector.64 = type { ptr }
%class.scoped_limit_trail = type { %class.svector.3, i32, i32 }
%class.stopwatch = type <{ %"class.std::chrono::time_point", %"class.std::chrono::duration", i8, [7 x i8] }>
%"class.std::chrono::time_point" = type { %"class.std::chrono::duration" }
%"class.std::chrono::duration" = type { i64 }
%class.params_ref = type { ptr }
%"struct.sat::no_drat_params" = type { %class.params_ref }
%class.scoped_ptr.59 = type { ptr }
%"class.sat::literal_set" = type { %class.tracked_uint_set }
%class.statistics = type { %class.svector.65, %class.svector.67 }
%class.svector.65 = type { %class.vector.66 }
%class.vector.66 = type { ptr }
%class.svector.67 = type { %class.vector.68 }
%class.vector.68 = type { ptr }
%class.approx_set_tpl = type { i32 }
%class.vector.40 = type { ptr }
%class.svector.57 = type { %class.vector.58 }
%class.vector.58 = type { ptr }
%class.u_map = type { %class.map }
%class.map = type { %class.table2map }
%class.table2map = type { %class.core_hashtable }
%class.core_hashtable = type <{ ptr, i32, i32, i32, [4 x i8] }>
%"class.sat::lookahead::scoped_level" = type <{ ptr, i32, [4 x i8] }>

; Function Attrs: mustprogress nounwind uwtable
define linkonce_odr hidden void @_ZN3sat9lookahead12scoped_levelD2Ev(ptr noundef nonnull align 8 dereferenceable(12) %this) unnamed_addr #4 comdat align 2 {
entry:
  %this.addr = alloca ptr, align 8
  store ptr %this, ptr %this.addr, align 8
  %this1 = load ptr, ptr %this.addr, align 8
  %m_save = getelementptr inbounds %"class.sat::lookahead::scoped_level", ptr %this1, i32 0, i32 1
  %0 = load i32, ptr %m_save, align 8
  %m_parent = getelementptr inbounds %"class.sat::lookahead::scoped_level", ptr %this1, i32 0, i32 0
  %1 = load ptr, ptr %m_parent, align 8
  %m_level = getelementptr inbounds %"class.sat::lookahead", ptr %1, i32 0, i32 31
  store i32 %0, ptr %m_level, align 8
  ret void
}

; Function Attrs: mustprogress nounwind uwtable
define linkonce_odr hidden void @_ZN3sat9lookahead12scoped_levelC2ERS0_j(ptr noundef nonnull align 8 dereferenceable(12) %this, ptr noundef nonnull align 8 dereferenceable(1160) %p, i32 noundef %l) unnamed_addr #4 comdat align 2 {
entry:
  %this.addr = alloca ptr, align 8
  %p.addr = alloca ptr, align 8
  %l.addr = alloca i32, align 4
  store ptr %this, ptr %this.addr, align 8
  store ptr %p, ptr %p.addr, align 8
  store i32 %l, ptr %l.addr, align 4
  %this1 = load ptr, ptr %this.addr, align 8
  %m_parent = getelementptr inbounds %"class.sat::lookahead::scoped_level", ptr %this1, i32 0, i32 0
  %0 = load ptr, ptr %p.addr, align 8
  store ptr %0, ptr %m_parent, align 8
  %m_save = getelementptr inbounds %"class.sat::lookahead::scoped_level", ptr %this1, i32 0, i32 1
  %1 = load ptr, ptr %p.addr, align 8
  %m_level = getelementptr inbounds %"class.sat::lookahead", ptr %1, i32 0, i32 31
  %2 = load i32, ptr %m_level, align 8
  store i32 %2, ptr %m_save, align 8
  %3 = load i32, ptr %l.addr, align 4
  %4 = load ptr, ptr %p.addr, align 8
  %m_level2 = getelementptr inbounds %"class.sat::lookahead", ptr %4, i32 0, i32 31
  store i32 %3, ptr %m_level2, align 8
  ret void
}

; Function Attrs: mustprogress uwtable
define hidden void @_ZN3sat9lookahead11init_searchEv(ptr noundef nonnull align 8 dereferenceable(1160) %this) #5 align 2 personality ptr @__gxx_personality_v0 {
entry:
  %this.addr = alloca ptr, align 8
  %_sl = alloca %"class.sat::lookahead::scoped_level", align 8
  %exn.slot = alloca ptr, align 8
  %ehselector.slot = alloca i32, align 4
  store ptr %this, ptr %this.addr, align 8
  %this1 = load ptr, ptr %this.addr, align 8
  %m_search_mode = getelementptr inbounds %"class.sat::lookahead", ptr %this1, i32 0, i32 43
  store i32 0, ptr %m_search_mode, align 4
  %c_fixed_truth = getelementptr inbounds %"class.sat::lookahead", ptr %this1, i32 0, i32 32
  %0 = load i32, ptr %c_fixed_truth, align 4
  call void @_ZN3sat9lookahead12scoped_levelC2ERS0_j(ptr noundef nonnull align 8 dereferenceable(12) %_sl, ptr noundef nonnull align 8 dereferenceable(1160) %this1, i32 noundef %0)
  %m_s = getelementptr inbounds %"class.sat::lookahead", ptr %this1, i32 0, i32 0
  %1 = load ptr, ptr %m_s, align 8
  %m_config = getelementptr inbounds %"class.sat::solver", ptr %1, i32 0, i32 3
  %m_lookahead_use_learned = getelementptr inbounds %"struct.sat::config", ptr %m_config, i32 0, i32 73
  %2 = load i8, ptr %m_lookahead_use_learned, align 8
  %tobool = trunc i8 %2 to i1
  invoke void @_ZN3sat9lookahead4initEb(ptr noundef nonnull align 8 dereferenceable(1160) %this1, i1 noundef zeroext %tobool)
          to label %invoke.cont unwind label %lpad

invoke.cont:                                      ; preds = %entry
  call void @_ZN3sat9lookahead12scoped_levelD2Ev(ptr noundef nonnull align 8 dereferenceable(12) %_sl) #3
  ret void

lpad:                                             ; preds = %entry
  %3 = landingpad { ptr, i32 }
          cleanup
  %4 = extractvalue { ptr, i32 } %3, 0
  store ptr %4, ptr %exn.slot, align 8
  %5 = extractvalue { ptr, i32 } %3, 1
  store i32 %5, ptr %ehselector.slot, align 4
  call void @_ZN3sat9lookahead12scoped_levelD2Ev(ptr noundef nonnull align 8 dereferenceable(12) %_sl) #3
  br label %eh.resume

eh.resume:                                        ; preds = %lpad
  %exn = load ptr, ptr %exn.slot, align 8
  %sel = load i32, ptr %ehselector.slot, align 4
  %lpad.val = insertvalue { ptr, i32 } poison, ptr %exn, 0
  %lpad.val2 = insertvalue { ptr, i32 } %lpad.val, i32 %sel, 1
  resume { ptr, i32 } %lpad.val2
}