; Function Attrs: mustprogress uwtable
define hidden void @_ZN3sat9lookahead11init_searchEv(ptr noundef nonnull align 8 dereferenceable(1160) %this) local_unnamed_addr #3 align 2 personality ptr @__gxx_personality_v0 {
entry:
  %m_search_mode = getelementptr inbounds i8, ptr %this, i64 988
  store i32 0, ptr %m_search_mode, align 4
  %c_fixed_truth = getelementptr inbounds i8, ptr %this, i64 892
  %0 = load i32, ptr %c_fixed_truth, align 4
  %m_level.i = getelementptr inbounds i8, ptr %this, i64 888
  %1 = load i32, ptr %m_level.i, align 8
  store i32 %0, ptr %m_level.i, align 8
  %2 = load ptr, ptr %this, align 8
  %m_lookahead_use_learned = getelementptr inbounds i8, ptr %2, i64 288
  %3 = load i8, ptr %m_lookahead_use_learned, align 8
  %4 = and i8 %3, 1
  %tobool = icmp ne i8 %4, 0
  invoke void @_ZN3sat9lookahead4initEb(ptr noundef nonnull align 8 dereferenceable(1160) %this, i1 noundef zeroext %tobool)
          to label %invoke.cont unwind label %lpad

invoke.cont:                                      ; preds = %entry
  store i32 %1, ptr %m_level.i, align 8
  ret void

lpad:                                             ; preds = %entry
  %5 = landingpad { ptr, i32 }
          cleanup
  store i32 %1, ptr %m_level.i, align 8
  resume { ptr, i32 } %5
}